; Function Attrs: mustprogress nofree norecurse nosync nounwind willreturn memory(read, inaccessiblemem: none) uwtable
define dso_local noundef i32 @_ZNK7testing9TestSuite30reportable_disabled_test_countEv(ptr noundef nonnull readonly align 8 captures(none) dereferenceable(264) %0) local_unnamed_addr #13 align 2 {
  %2 = getelementptr inbounds nuw i8, ptr %0, i64 48
  %3 = load ptr, ptr %2, align 8, !tbaa !311
  %4 = getelementptr inbounds nuw i8, ptr %0, i64 56
  %5 = load ptr, ptr %4, align 8, !tbaa !311
  %.not7.i = icmp eq ptr %3, %5
  br i1 %.not7.i, label %_ZN7testing8internal7CountIfISt6vectorIPNS_8TestInfoESaIS4_EEPFbPKS3_EEEiRKT_T0_.exit, label %.lr.ph.i

.lr.ph.i:                                         ; preds = %1, %_ZN7testing9TestSuite22TestReportableDisabledEPKNS_8TestInfoE.exit
  %.09.i = phi i32 [ %spec.select.i, %_ZN7testing9TestSuite22TestReportableDisabledEPKNS_8TestInfoE.exit ], [ 0, %1 ]
  %.sroa.04.08.i = phi ptr [ %19, %_ZN7testing9TestSuite22TestReportableDisabledEPKNS_8TestInfoE.exit ], [ %3, %1 ]
  %6 = load ptr, ptr %.sroa.04.08.i, align 8, !tbaa !312
  %7 = getelementptr inbounds nuw i8, ptr %6, i64 130
  %8 = load i8, ptr %7, align 2, !tbaa !320, !range !66, !noundef !67
  %9 = trunc nuw i8 %8 to i1
  %10 = getelementptr inbounds nuw i8, ptr %6, i64 131
  %11 = load i8, ptr %10, align 1, !range !66
  %12 = trunc nuw i8 %11 to i1
  %not..i = xor i1 %9, true
  %13 = select i1 %not..i, i1 true, i1 %12
  br i1 %13, label %_ZN7testing9TestSuite22TestReportableDisabledEPKNS_8TestInfoE.exit, label %14

14:                                               ; preds = %.lr.ph.i
  %15 = getelementptr inbounds nuw i8, ptr %6, i64 129
  %16 = load i8, ptr %15, align 1, !tbaa !321, !range !66, !noundef !67
  %17 = zext nneg i8 %16 to i32
  br label %_ZN7testing9TestSuite22TestReportableDisabledEPKNS_8TestInfoE.exit

_ZN7testing9TestSuite22TestReportableDisabledEPKNS_8TestInfoE.exit: ; preds = %.lr.ph.i, %14
  %18 = phi i32 [ 0, %.lr.ph.i ], [ %17, %14 ]
  %spec.select.i = add nuw nsw i32 %18, %.09.i
  %19 = getelementptr inbounds nuw i8, ptr %.sroa.04.08.i, i64 8
  %.not.i = icmp eq ptr %19, %5
  br i1 %.not.i, label %_ZN7testing8internal7CountIfISt6vectorIPNS_8TestInfoESaIS4_EEPFbPKS3_EEEiRKT_T0_.exit, label %.lr.ph.i, !llvm.loop !318

_ZN7testing8internal7CountIfISt6vectorIPNS_8TestInfoESaIS4_EEPFbPKS3_EEEiRKT_T0_.exit: ; preds = %_ZN7testing9TestSuite22TestReportableDisabledEPKNS_8TestInfoE.exit, %1
  %.0.lcssa.i = phi i32 [ 0, %1 ], [ %spec.select.i, %_ZN7testing9TestSuite22TestReportableDisabledEPKNS_8TestInfoE.exit ]
  ret i32 %.0.lcssa.i
}